; Function Attrs: mustprogress uwtable
define internal void @_ZN9grpc_core12_GLOBAL__N_123RootCertificatesWatcher7OnErrorEN4absl12lts_202308026StatusES4_(ptr noundef nonnull align 8 dereferenceable(48) %this, ptr nocapture noundef readonly %root_cert_error, ptr nocapture readnone %0) unnamed_addr #6 align 2 personality ptr @__gxx_personality_v0 {
entry:
  %agg.tmp = alloca %"class.std::optional", align 8
  %agg.tmp3 = alloca %"class.std::optional", align 8
  %1 = load i64, ptr %root_cert_error, align 8
  %cmp.i = icmp eq i64 %1, 0
  br i1 %cmp.i, label %if.end, label %if.then

if.then:                                          ; preds = %entry
  %parent_ = getelementptr inbounds i8, ptr %this, i64 8
  %2 = load ptr, ptr %parent_, align 8
  %cert_name_ = getelementptr inbounds i8, ptr %this, i64 16
  store i64 %1, ptr %agg.tmp, align 8
  %and.i.i.i.i.i.i.i.i.i = and i64 %1, 1
  %cmp.i.i.i.i.i.i.i.i.i = icmp eq i64 %and.i.i.i.i.i.i.i.i.i, 0
  br i1 %cmp.i.i.i.i.i.i.i.i.i, label %_ZNSt8optionalIN4absl12lts_202308026StatusEEC2IRS2_TnNSt9enable_ifIX7__and_vISt6__not_ISt7is_sameIS3_NSt9remove_cvINSt16remove_referenceIT_E4typeEE4typeEEES7_IS8_ISt10in_place_tSF_EESt16is_constructibleIS2_JSB_EESt14is_convertibleISB_S2_EEEbE4typeELb1EEEOSB_.exit, label %if.then.i.i.i.i.i.i.i.i

if.then.i.i.i.i.i.i.i.i:                          ; preds = %if.then
  %sub.i.i.i.i.i.i.i.i.i = add nsw i64 %1, -1
  %3 = inttoptr i64 %sub.i.i.i.i.i.i.i.i.i to ptr
  %4 = atomicrmw add ptr %3, i32 1 monotonic, align 4
  br label %_ZNSt8optionalIN4absl12lts_202308026StatusEEC2IRS2_TnNSt9enable_ifIX7__and_vISt6__not_ISt7is_sameIS3_NSt9remove_cvINSt16remove_referenceIT_E4typeEE4typeEEES7_IS8_ISt10in_place_tSF_EESt16is_constructibleIS2_JSB_EESt14is_convertibleISB_S2_EEEbE4typeELb1EEEOSB_.exit

_ZNSt8optionalIN4absl12lts_202308026StatusEEC2IRS2_TnNSt9enable_ifIX7__and_vISt6__not_ISt7is_sameIS3_NSt9remove_cvINSt16remove_referenceIT_E4typeEE4typeEEES7_IS8_ISt10in_place_tSF_EESt16is_constructibleIS2_JSB_EESt14is_convertibleISB_S2_EEEbE4typeELb1EEEOSB_.exit: ; preds = %if.then, %if.then.i.i.i.i.i.i.i.i
  %_M_engaged.i.i.i.i.i = getelementptr inbounds i8, ptr %agg.tmp, i64 8
  store i8 1, ptr %_M_engaged.i.i.i.i.i, align 8
  %_M_engaged.i.i.i.i.i1 = getelementptr inbounds i8, ptr %agg.tmp3, i64 8
  store i8 0, ptr %_M_engaged.i.i.i.i.i1, align 8
  invoke void @_ZN32grpc_tls_certificate_distributor15SetErrorForCertERKNSt7__cxx1112basic_stringIcSt11char_traitsIcESaIcEEESt8optionalIN4absl12lts_202308026StatusEESC_(ptr noundef nonnull align 8 dereferenceable(160) %2, ptr noundef nonnull align 8 dereferenceable(32) %cert_name_, ptr noundef nonnull %agg.tmp, ptr noundef nonnull %agg.tmp3)
          to label %invoke.cont unwind label %lpad

invoke.cont:                                      ; preds = %_ZNSt8optionalIN4absl12lts_202308026StatusEEC2IRS2_TnNSt9enable_ifIX7__and_vISt6__not_ISt7is_sameIS3_NSt9remove_cvINSt16remove_referenceIT_E4typeEE4typeEEES7_IS8_ISt10in_place_tSF_EESt16is_constructibleIS2_JSB_EESt14is_convertibleISB_S2_EEEbE4typeELb1EEEOSB_.exit
  %5 = load i8, ptr %_M_engaged.i.i.i.i.i1, align 8
  %6 = and i8 %5, 1
  %tobool.not.i.i.i.i = icmp eq i8 %6, 0
  br i1 %tobool.not.i.i.i.i, label %_ZNSt8optionalIN4absl12lts_202308026StatusEED2Ev.exit, label %if.then.i.i.i.i

if.then.i.i.i.i:                                  ; preds = %invoke.cont
  store i8 0, ptr %_M_engaged.i.i.i.i.i1, align 8
  %7 = load i64, ptr %agg.tmp3, align 8
  %and.i.i.i.i.i.i.i.i = and i64 %7, 1
  %cmp.i.i.i.i.i.i.i.i = icmp eq i64 %and.i.i.i.i.i.i.i.i, 0
  br i1 %cmp.i.i.i.i.i.i.i.i, label %_ZNSt8optionalIN4absl12lts_202308026StatusEED2Ev.exit, label %if.then.i.i.i.i.i.i.i

if.then.i.i.i.i.i.i.i:                            ; preds = %if.then.i.i.i.i
  invoke void @_ZN4absl12lts_202308026Status15UnrefNonInlinedEm(i64 noundef %7)
          to label %_ZNSt8optionalIN4absl12lts_202308026StatusEED2Ev.exit unwind label %terminate.lpad.i.i.i.i.i.i

terminate.lpad.i.i.i.i.i.i:                       ; preds = %if.then.i.i.i.i.i.i.i
  %8 = landingpad { ptr, i32 }
          catch ptr null
  %9 = extractvalue { ptr, i32 } %8, 0
  call void @__clang_call_terminate(ptr %9) #19
  unreachable

_ZNSt8optionalIN4absl12lts_202308026StatusEED2Ev.exit: ; preds = %invoke.cont, %if.then.i.i.i.i, %if.then.i.i.i.i.i.i.i
  %10 = load i8, ptr %_M_engaged.i.i.i.i.i, align 8
  %11 = and i8 %10, 1
  %tobool.not.i.i.i.i3 = icmp eq i8 %11, 0
  br i1 %tobool.not.i.i.i.i3, label %if.end, label %if.then.i.i.i.i4

if.then.i.i.i.i4:                                 ; preds = %_ZNSt8optionalIN4absl12lts_202308026StatusEED2Ev.exit
  store i8 0, ptr %_M_engaged.i.i.i.i.i, align 8
  %12 = load i64, ptr %agg.tmp, align 8
  %and.i.i.i.i.i.i.i.i5 = and i64 %12, 1
  %cmp.i.i.i.i.i.i.i.i6 = icmp eq i64 %and.i.i.i.i.i.i.i.i5, 0
  br i1 %cmp.i.i.i.i.i.i.i.i6, label %if.end, label %if.then.i.i.i.i.i.i.i7

if.then.i.i.i.i.i.i.i7:                           ; preds = %if.then.i.i.i.i4
  invoke void @_ZN4absl12lts_202308026Status15UnrefNonInlinedEm(i64 noundef %12)
          to label %if.end unwind label %terminate.lpad.i.i.i.i.i.i8

terminate.lpad.i.i.i.i.i.i8:                      ; preds = %if.then.i.i.i.i.i.i.i7
  %13 = landingpad { ptr, i32 }
          catch ptr null
  %14 = extractvalue { ptr, i32 } %13, 0
  call void @__clang_call_terminate(ptr %14) #19
  unreachable

lpad:                                             ; preds = %_ZNSt8optionalIN4absl12lts_202308026StatusEEC2IRS2_TnNSt9enable_ifIX7__and_vISt6__not_ISt7is_sameIS3_NSt9remove_cvINSt16remove_referenceIT_E4typeEE4typeEEES7_IS8_ISt10in_place_tSF_EESt16is_constructibleIS2_JSB_EESt14is_convertibleISB_S2_EEEbE4typeELb1EEEOSB_.exit
  %15 = landingpad { ptr, i32 }
          cleanup
  call void @_ZNSt8optionalIN4absl12lts_202308026StatusEED2Ev(ptr noundef nonnull align 8 dereferenceable(16) %agg.tmp3) #18
  call void @_ZNSt8optionalIN4absl12lts_202308026StatusEED2Ev(ptr noundef nonnull align 8 dereferenceable(16) %agg.tmp) #18
  resume { ptr, i32 } %15

if.end:                                           ; preds = %if.then.i.i.i.i.i.i.i7, %if.then.i.i.i.i4, %_ZNSt8optionalIN4absl12lts_202308026StatusEED2Ev.exit, %entry
  ret void
}